target datalayout = "e-m:e-p270:32:32-p271:32:32-p272:64:64-i64:64-i128:128-f80:128-n8:16:32:64-S128"
target triple = "x86_64-pc-linux-gnu"

%struct.Curl_handler = type { ptr, ptr, ptr, ptr, ptr, ptr, ptr, ptr, ptr, ptr, ptr, ptr, ptr, ptr, ptr, ptr, ptr, ptr, i32, i32, i32, i32 }
%struct.Curl_easy = type { i32, i64, i64, ptr, %struct.Curl_llist_node, %struct.Curl_llist_node, i32, i32, %struct.Curl_message, %struct.easy_pollset, %struct.Names, ptr, ptr, ptr, ptr, %struct.SingleRequest, %struct.UserDefined, ptr, ptr, ptr, %struct.Progress, %struct.UrlState, ptr, %struct.PureInfo, %struct.curl_tlssessioninfo }
%struct.Curl_llist_node = type { ptr, ptr, ptr, ptr }
%struct.Curl_message = type { %struct.Curl_llist_node, %struct.CURLMsg }
%struct.CURLMsg = type { i32, ptr, %union.anon }
%union.anon = type { ptr }
%struct.easy_pollset = type { [5 x i32], i32, [5 x i8] }
%struct.Names = type { ptr, i32 }
%struct.SingleRequest = type <{ i64, i64, i64, i64, %struct.curltime, i32, i32, i32, i32, i64, i32, i32, i8, i8, [2 x i8], i32, ptr, ptr, %struct.bufq, i64, i64, ptr, ptr, %union.anon.0, ptr, i8, i32, [3 x i8] }>
%struct.curltime = type { i64, i32 }
%struct.bufq = type { ptr, ptr, ptr, ptr, i64, i64, i64, i32 }
%union.anon.0 = type { ptr }
%struct.UserDefined = type <{ ptr, ptr, ptr, ptr, ptr, ptr, i64, i64, i64, ptr, ptr, i64, ptr, ptr, ptr, ptr, ptr, ptr, ptr, ptr, ptr, ptr, ptr, ptr, ptr, ptr, ptr, ptr, ptr, ptr, ptr, ptr, ptr, ptr, ptr, i64, i64, i64, i64, i64, i64, i64, i64, i64, ptr, ptr, %struct.curl_mimepart, ptr, ptr, ptr, i64, %struct.ssl_config_data, %struct.ssl_config_data, ptr, i16, i8, i8, %struct.ssl_general_config, i32, i32, i32, [4 x i8], ptr, ptr, i64, i32, i8, i8, i8, i8, ptr, ptr, ptr, i32, [4 x i8], [74 x ptr], [8 x ptr], i32, i32, i32, [4 x i8], ptr, i32, [4 x i8], ptr, ptr, ptr, ptr, ptr, i32, i32, i32, i32, i32, i32, i32, i32, i64, ptr, ptr, i64, ptr, i64, ptr, ptr, ptr, ptr, i32, i16, i16, i16, i8, i8, i8, i8, i8, i8, i8, i8, i64, [6 x i8] }>
%struct.curl_mimepart = type { ptr, ptr, i32, i32, ptr, ptr, ptr, ptr, ptr, ptr, ptr, ptr, ptr, ptr, ptr, i64, %struct.mime_state, ptr, %struct.mime_encoder_state, i64 }
%struct.mime_state = type { i32, ptr, i64 }
%struct.mime_encoder_state = type { i64, i64, i64, [256 x i8] }
%struct.ssl_config_data = type { %struct.ssl_primary_config, i64, ptr, ptr, ptr, ptr, ptr, ptr, ptr, i16 }
%struct.ssl_primary_config = type { ptr, ptr, ptr, ptr, ptr, ptr, ptr, ptr, ptr, ptr, ptr, ptr, ptr, ptr, i8, i32, i8, i8 }
%struct.ssl_general_config = type { i32 }
%struct.Progress = type { i64, %struct.pgrs_dir, %struct.pgrs_dir, i64, i64, i32, i32, i64, i64, i64, i64, i64, i64, i64, i64, i64, %struct.curltime, %struct.curltime, %struct.curltime, %struct.curltime, %struct.curltime, [6 x i64], [6 x %struct.curltime], i32, i8 }
%struct.pgrs_dir = type { i64, i64, i64, %struct.pgrs_measure }
%struct.pgrs_measure = type { %struct.curltime, i64 }
%struct.UrlState = type { %struct.curltime, i64, i64, %struct.dynbuf, ptr, i64, ptr, i32, i32, i32, ptr, i32, i64, i32, ptr, %struct.digestdata, %struct.digestdata, %struct.auth, %struct.auth, %struct.Curl_async, ptr, i8, %struct.curltime, %struct.Curl_tree, %struct.Curl_llist, [15 x %struct.time_node], ptr, ptr, i64, i64, i64, i64, [32 x i8], i64, ptr, ptr, ptr, %struct.urlpieces, ptr, ptr, ptr, ptr, ptr, i64, %struct.dynbuf, %struct.Curl_llist, [2 x %struct.curl_header], ptr, i32, ptr, ptr, %struct.store_netrc, %struct.dynamically_allocated_data, i8, i8, i8, i8, i32 }
%struct.digestdata = type { ptr, ptr, ptr, ptr, ptr, ptr, i32, i8, i8 }
%struct.auth = type { i64, i64, i64, i8 }
%struct.Curl_async = type { ptr, ptr, ptr, ptr, i32, i32, i8 }
%struct.Curl_tree = type { ptr, ptr, ptr, ptr, %struct.curltime, ptr }
%struct.time_node = type { %struct.Curl_llist_node, %struct.curltime, i32 }
%struct.urlpieces = type { ptr, ptr, ptr, ptr, ptr, ptr, ptr, ptr }
%struct.dynbuf = type { ptr, i64, i64, i64 }
%struct.Curl_llist = type { ptr, ptr, ptr, i64 }
%struct.curl_header = type { ptr, ptr, i64, i64, i32, ptr }
%struct.store_netrc = type { %struct.dynbuf, ptr, i8 }
%struct.dynamically_allocated_data = type { ptr, ptr, ptr, ptr, ptr, ptr, ptr, ptr, ptr, ptr, ptr, ptr, ptr, ptr }
%struct.PureInfo = type { i32, i32, i32, i64, i64, i64, i64, i64, i64, i64, ptr, ptr, i64, i32, %struct.ip_quadruple, i32, ptr, i32, %struct.curl_certinfo, i32, i8 }
%struct.ip_quadruple = type { [46 x i8], [46 x i8], i32, i32 }
%struct.curl_certinfo = type { i32, ptr }
%struct.curl_tlssessioninfo = type { i32, ptr }
%struct.connectdata = type { %struct.Curl_llist_node, ptr, ptr, i64, ptr, i64, ptr, ptr, %struct.hostname, ptr, ptr, %struct.hostname, %struct.proxy_info, %struct.proxy_info, %struct.ip_quadruple, %struct.ip_quadruple, ptr, ptr, ptr, ptr, ptr, %struct.curltime, %struct.curltime, %struct.curltime, [2 x i32], [2 x ptr], [2 x ptr], [2 x ptr], %struct.anon, %struct.easy_pollset, %struct.ssl_primary_config, %struct.ssl_primary_config, %struct.ConnectBits, ptr, ptr, %struct.curltime, i32, i32, %struct.Curl_llist, i32, i32, %struct.ntlmdata, %struct.ntlmdata, %union.anon.1, ptr, ptr, i16, i32, i32, i32, i32, i16, i16, i8, i8, i8, i8, i8, i8, i8 }
%struct.hostname = type { ptr, ptr, ptr, ptr }
%struct.proxy_info = type { %struct.hostname, i32, i8, ptr, ptr }
%struct.anon = type { [2 x %struct.curltime], i32 }
%struct.ConnectBits = type { i64 }
%struct.ntlmdata = type { i32, [8 x i8], i32, ptr }
%union.anon.1 = type { %struct.ftp_conn }
%struct.ftp_conn = type { %struct.pingpong, ptr, ptr, ptr, ptr, ptr, ptr, ptr, i8, i64, ptr, i64, i32, i32, i32, i32, i32, i16, i8, i8, i8, i8, i8 }
%struct.pingpong = type { i64, i8, ptr, i64, i64, %struct.curltime, i64, %struct.dynbuf, %struct.dynbuf, i64, i64, ptr, ptr }

@.str.17 = private unnamed_addr constant [5 x i8] c"HEAD\00", align 1
@.str.18 = private unnamed_addr constant [4 x i8] c"GET\00", align 1
@.str.33 = private unnamed_addr constant [5 x i8] c"POST\00", align 1
@.str.34 = private unnamed_addr constant [4 x i8] c"PUT\00", align 1

; Function Attrs: nounwind uwtable
define hidden void @Curl_http_method(ptr noundef %0, ptr noundef %1, ptr noundef %2, ptr noundef %3) #0 {
  %5 = alloca ptr, align 8
  %6 = alloca ptr, align 8
  %7 = alloca ptr, align 8
  %8 = alloca ptr, align 8
  %9 = alloca i32, align 4
  %10 = alloca ptr, align 8
  store ptr %0, ptr %5, align 8, !tbaa !3
  store ptr %1, ptr %6, align 8, !tbaa !8
  store ptr %2, ptr %7, align 8, !tbaa !194
  store ptr %3, ptr %8, align 8, !tbaa !96
  call void @llvm.lifetime.start.p0(i64 4, ptr %9) #7
  %11 = load ptr, ptr %5, align 8, !tbaa !3
  %12 = getelementptr inbounds nuw %struct.Curl_easy, ptr %11, i32 0, i32 21
  %13 = getelementptr inbounds nuw %struct.UrlState, ptr %12, i32 0, i32 55
  %14 = load i8, ptr %13, align 2, !tbaa !139
  %15 = zext i8 %14 to i32
  store i32 %15, ptr %9, align 4, !tbaa !78
  call void @llvm.lifetime.start.p0(i64 8, ptr %10) #7
  %16 = load ptr, ptr %6, align 8, !tbaa !8
  %17 = getelementptr inbounds nuw %struct.connectdata, ptr %16, i32 0, i32 33
  %18 = load ptr, ptr %17, align 8, !tbaa !109
  %19 = getelementptr inbounds nuw %struct.Curl_handler, ptr %18, i32 0, i32 19
  %20 = load i32, ptr %19, align 4, !tbaa !110
  %21 = and i32 %20, -1073741817
  %22 = icmp ne i32 %21, 0
  br i1 %22, label %23, label %32

23:                                               ; preds = %4
  %24 = load ptr, ptr %5, align 8, !tbaa !3
  %25 = getelementptr inbounds nuw %struct.Curl_easy, ptr %24, i32 0, i32 21
  %26 = getelementptr inbounds nuw %struct.UrlState, ptr %25, i32 0, i32 57
  %27 = load i32, ptr %26, align 4
  %28 = lshr i32 %27, 19
  %29 = and i32 %28, 1
  %30 = icmp ne i32 %29, 0
  br i1 %30, label %31, label %32

31:                                               ; preds = %23
  store i32 4, ptr %9, align 4, !tbaa !78
  br label %32

32:                                               ; preds = %31, %23, %4
  %33 = load ptr, ptr %5, align 8, !tbaa !3
  %34 = getelementptr inbounds nuw %struct.Curl_easy, ptr %33, i32 0, i32 16
  %35 = getelementptr inbounds nuw %struct.UserDefined, ptr %34, i32 0, i32 75
  %36 = getelementptr inbounds [74 x ptr], ptr %35, i64 0, i64 28
  %37 = load ptr, ptr %36, align 8, !tbaa !82
  %38 = icmp ne ptr %37, null
  br i1 %38, label %39, label %45

39:                                               ; preds = %32
  %40 = load ptr, ptr %5, align 8, !tbaa !3
  %41 = getelementptr inbounds nuw %struct.Curl_easy, ptr %40, i32 0, i32 16
  %42 = getelementptr inbounds nuw %struct.UserDefined, ptr %41, i32 0, i32 75
  %43 = getelementptr inbounds [74 x ptr], ptr %42, i64 0, i64 28
  %44 = load ptr, ptr %43, align 8, !tbaa !82
  store ptr %44, ptr %10, align 8, !tbaa !82
  br label %66

45:                                               ; preds = %32
  %46 = load ptr, ptr %5, align 8, !tbaa !3
  %47 = getelementptr inbounds nuw %struct.Curl_easy, ptr %46, i32 0, i32 15
  %48 = getelementptr inbounds nuw %struct.SingleRequest, ptr %47, i32 0, i32 26
  %49 = load i32, ptr %48, align 1
  %50 = lshr i32 %49, 17
  %51 = and i32 %50, 1
  %52 = icmp ne i32 %51, 0
  br i1 %52, label %53, label %54

53:                                               ; preds = %45
  store ptr @.str.17, ptr %10, align 8, !tbaa !82
  br label %65

54:                                               ; preds = %45
  br label %55

55:                                               ; preds = %54
  br label %56

56:                                               ; preds = %55
  br label %57

57:                                               ; preds = %56
  %58 = load i32, ptr %9, align 4, !tbaa !78
  switch i32 %58, label %61 [
    i32 1, label %59
    i32 2, label %59
    i32 3, label %59
    i32 4, label %60
    i32 0, label %62
    i32 5, label %63
  ]

59:                                               ; preds = %57, %57, %57
  store ptr @.str.33, ptr %10, align 8, !tbaa !82
  br label %64

60:                                               ; preds = %57
  store ptr @.str.34, ptr %10, align 8, !tbaa !82
  br label %64

61:                                               ; preds = %57
  br label %62

62:                                               ; preds = %57, %61
  store ptr @.str.18, ptr %10, align 8, !tbaa !82
  br label %64

63:                                               ; preds = %57
  store ptr @.str.17, ptr %10, align 8, !tbaa !82
  br label %64

64:                                               ; preds = %63, %62, %60, %59
  br label %65

65:                                               ; preds = %64, %53
  br label %66

66:                                               ; preds = %65, %39
  %67 = load ptr, ptr %10, align 8, !tbaa !82
  %68 = load ptr, ptr %7, align 8, !tbaa !194
  store ptr %67, ptr %68, align 8, !tbaa !82
  %69 = load i32, ptr %9, align 4, !tbaa !78
  %70 = load ptr, ptr %8, align 8, !tbaa !96
  store i32 %69, ptr %70, align 4, !tbaa !78
  call void @llvm.lifetime.end.p0(i64 8, ptr %10) #7
  call void @llvm.lifetime.end.p0(i64 4, ptr %9) #7
  ret void
}